target datalayout = "e-m:e-p270:32:32-p271:32:32-p272:64:64-i64:64-i128:128-f80:128-n8:16:32:64-S128"
target triple = "x86_64-pc-linux-gnu"

%struct.stepmgr_job_info_t = type { i32, ptr }

@.str.2 = private unnamed_addr constant [22 x i8] c"slurm_protocol_pack.c\00", align 1
@__func__.slurm_unpack_stepmgr_job_info = private unnamed_addr constant [30 x i8] c"slurm_unpack_stepmgr_job_info\00", align 1

; Function Attrs: nounwind uwtable
define dso_local i32 @slurm_unpack_stepmgr_job_info(ptr noundef %0, i16 noundef zeroext %1, ptr noundef %2) #0 {
  %4 = alloca i32, align 4
  %5 = alloca ptr, align 8
  %6 = alloca i16, align 2
  %7 = alloca ptr, align 8
  %8 = alloca ptr, align 8
  %9 = alloca i32, align 4
  %10 = alloca i32, align 4
  store ptr %0, ptr %5, align 8
  store i16 %1, ptr %6, align 2
  store ptr %2, ptr %7, align 8
  call void @llvm.lifetime.start.p0(i64 8, ptr %8) #6
  %11 = call ptr @slurm_xcalloc(i64 noundef 1, i64 noundef 16, i1 noundef zeroext true, i1 noundef zeroext false, ptr noundef @.str.2, i32 noundef 2856, ptr noundef @__func__.slurm_unpack_stepmgr_job_info)
  store ptr %11, ptr %8, align 8
  %12 = load ptr, ptr %8, align 8
  %13 = load ptr, ptr %5, align 8
  store ptr %12, ptr %13, align 8
  %14 = load i16, ptr %6, align 2
  %15 = zext i16 %14 to i32
  %16 = icmp sge i32 %15, 10496
  br i1 %16, label %17, label %41

17:                                               ; preds = %3
  br label %18

18:                                               ; preds = %17
  %19 = load ptr, ptr %8, align 8
  %20 = getelementptr inbounds nuw %struct.stepmgr_job_info_t, ptr %19, i32 0, i32 0
  %21 = load ptr, ptr %7, align 8
  %22 = call i32 @unpack32(ptr noundef %20, ptr noundef %21)
  %23 = icmp ne i32 %22, 0
  br i1 %23, label %24, label %25

24:                                               ; preds = %18
  br label %42

25:                                               ; preds = %18
  br label %26

26:                                               ; preds = %25
  br label %27

27:                                               ; preds = %26
  br label %28

28:                                               ; preds = %27
  call void @llvm.lifetime.start.p0(i64 4, ptr %9) #6
  %29 = load ptr, ptr %8, align 8
  %30 = getelementptr inbounds nuw %struct.stepmgr_job_info_t, ptr %29, i32 0, i32 1
  %31 = load ptr, ptr %7, align 8
  %32 = call i32 @unpackstr_xmalloc_chooser(ptr noundef %30, ptr noundef %9, ptr noundef %31)
  %33 = icmp ne i32 %32, 0
  br i1 %33, label %34, label %35

34:                                               ; preds = %28
  store i32 4, ptr %10, align 4
  br label %36

35:                                               ; preds = %28
  store i32 0, ptr %10, align 4
  br label %36

36:                                               ; preds = %34, %35
  call void @llvm.lifetime.end.p0(i64 4, ptr %9) #6
  %37 = load i32, ptr %10, align 4
  switch i32 %37, label %44 [
    i32 0, label %38
    i32 4, label %42
  ]

38:                                               ; preds = %36
  br label %39

39:                                               ; preds = %38
  br label %40

40:                                               ; preds = %39
  br label %41

41:                                               ; preds = %40, %3
  store i32 0, ptr %4, align 4
  store i32 1, ptr %10, align 4
  br label %44

42:                                               ; preds = %36, %24
  %43 = load ptr, ptr %8, align 8
  call void @slurm_free_stepmgr_job_info(ptr noundef %43)
  store i32 -1, ptr %4, align 4
  store i32 1, ptr %10, align 4
  br label %44

44:                                               ; preds = %42, %41, %36
  call void @llvm.lifetime.end.p0(i64 8, ptr %8) #6
  %45 = load i32, ptr %4, align 4
  ret i32 %45
}