; Function Attrs: nounwind uwtable
define dso_local range(i32 -1, 1) i32 @slurm_unpack_stepmgr_job_info(ptr noundef writeonly captures(none) initializes((0, 8)) %0, i16 noundef zeroext %1, ptr noundef %2) #0 {
  %4 = alloca i32, align 4
  %5 = tail call ptr @slurm_xcalloc(i64 noundef 1, i64 noundef 16, i1 noundef zeroext true, i1 noundef zeroext false, ptr noundef nonnull @.str.2, i32 noundef 2856, ptr noundef nonnull @__func__.slurm_unpack_stepmgr_job_info) #7
  store ptr %5, ptr %0, align 8
  %6 = icmp ugt i16 %1, 10495
  br i1 %6, label %7, label %13

7:                                                ; preds = %3
  %8 = tail call i32 @unpack32(ptr noundef %5, ptr noundef %2) #7
  %.not = icmp eq i32 %8, 0
  br i1 %.not, label %9, label %12

9:                                                ; preds = %7
  call void @llvm.lifetime.start.p0(i64 4, ptr nonnull %4) #7
  %10 = getelementptr inbounds nuw i8, ptr %5, i64 8
  %11 = call i32 @unpackstr_xmalloc_chooser(ptr noundef nonnull %10, ptr noundef nonnull %4, ptr noundef %2) #7
  %.not10 = icmp eq i32 %11, 0
  call void @llvm.lifetime.end.p0(i64 4, ptr nonnull %4) #7
  br i1 %.not10, label %13, label %12

12:                                               ; preds = %9, %7
  call void @slurm_free_stepmgr_job_info(ptr noundef %5) #7
  br label %13

13:                                               ; preds = %9, %3, %12
  %.09 = phi i32 [ -1, %12 ], [ 0, %9 ], [ 0, %3 ]
  ret i32 %.09
}